; ModuleID = 'source-C-CXX/11/1342.cpp'
source_filename = "source-C-CXX/11/1342.cpp"
target datalayout = "e-m:e-p270:32:32-p271:32:32-p272:64:64-i64:64-f80:128-n8:16:32:64-S128"
target triple = "x86_64-pc-linux-gnu"

%"class.std::ios_base::Init" = type { i8 }
%"class.std::basic_istream" = type { i32 (...)**, i64, %"class.std::basic_ios" }
%"class.std::basic_ios" = type { %"class.std::ios_base", %"class.std::basic_ostream"*, i8, i8, %"class.std::basic_streambuf"*, %"class.std::ctype"*, %"class.std::num_put"*, %"class.std::num_get"* }
%"class.std::ios_base" = type { i32 (...)**, i64, i64, i32, i32, i32, %"struct.std::ios_base::_Callback_list"*, %"struct.std::ios_base::_Words", [8 x %"struct.std::ios_base::_Words"], i32, %"struct.std::ios_base::_Words"*, %"class.std::locale" }
%"struct.std::ios_base::_Callback_list" = type { %"struct.std::ios_base::_Callback_list"*, void (i32, %"class.std::ios_base"*, i32)*, i32, i32 }
%"struct.std::ios_base::_Words" = type { i8*, i64 }
%"class.std::locale" = type { %"class.std::locale::_Impl"* }
%"class.std::locale::_Impl" = type { i32, %"class.std::locale::facet"**, i64, %"class.std::locale::facet"**, i8** }
%"class.std::locale::facet" = type <{ i32 (...)**, i32, [4 x i8] }>
%"class.std::basic_ostream" = type { i32 (...)**, %"class.std::basic_ios" }
%"class.std::basic_streambuf" = type { i32 (...)**, i8*, i8*, i8*, i8*, i8*, i8*, %"class.std::locale" }
%"class.std::ctype" = type <{ %"class.std::locale::facet.base", [4 x i8], %struct.__locale_struct*, i8, [7 x i8], i32*, i32*, i16*, i8, [256 x i8], [256 x i8], i8, [6 x i8] }>
%"class.std::locale::facet.base" = type <{ i32 (...)**, i32 }>
%struct.__locale_struct = type { [13 x %struct.__locale_data*], i16*, i32*, i32*, [13 x i8*] }
%struct.__locale_data = type opaque
%"class.std::num_put" = type { %"class.std::locale::facet.base", [4 x i8] }
%"class.std::num_get" = type { %"class.std::locale::facet.base", [4 x i8] }

@_ZStL8__ioinit = internal global %"class.std::ios_base::Init" zeroinitializer, align 1
@__dso_handle = external hidden global i8
@_ZSt3cin = external global %"class.std::basic_istream", align 8
@_ZSt4cout = external global %"class.std::basic_ostream", align 8
@llvm.global_ctors = appending global [1 x { i32, void ()*, i8* }] [{ i32, void ()*, i8* } { i32 65535, void ()* @_GLOBAL__sub_I_1342.cpp, i8* null }]

declare void @_ZNSt8ios_base4InitC1Ev(%"class.std::ios_base::Init"* nonnull align 1 dereferenceable(1)) unnamed_addr #0

; Function Attrs: nounwind
declare void @_ZNSt8ios_base4InitD1Ev(%"class.std::ios_base::Init"* nonnull align 1 dereferenceable(1)) unnamed_addr #1

; Function Attrs: nofree nounwind
declare i32 @__cxa_atexit(void (i8*)*, i8*, i8*) local_unnamed_addr #2

; Function Attrs: mustprogress norecurse sspstrong uwtable
define dso_local i32 @main() local_unnamed_addr #3 {
  %1 = alloca [20 x i32], align 16
  %2 = bitcast [20 x i32]* %1 to i8*
  br label %3

3:                                                ; preds = %153, %0
  call void @llvm.lifetime.start.p0i8(i64 80, i8* nonnull %2) #8
  br label %4

4:                                                ; preds = %4, %3
  %5 = phi i64 [ %6, %4 ], [ 0, %3 ]
  %6 = add nuw nsw i64 %5, 1
  %7 = getelementptr inbounds [20 x i32], [20 x i32]* %1, i64 0, i64 %6
  %8 = call nonnull align 8 dereferenceable(16) %"class.std::basic_istream"* @_ZNSirsERi(%"class.std::basic_istream"* nonnull align 8 dereferenceable(16) @_ZSt3cin, i32* nonnull align 4 dereferenceable(4) %7)
  %9 = load i32, i32* %7, align 4, !tbaa !5
  %10 = icmp sgt i32 %9, 0
  br i1 %10, label %4, label %11, !llvm.loop !9

11:                                               ; preds = %4
  %12 = icmp eq i32 %9, -1
  br i1 %12, label %157, label %13

13:                                               ; preds = %11
  %14 = trunc i64 %5 to i32
  %15 = icmp eq i32 %14, 0
  br i1 %15, label %125, label %16

16:                                               ; preds = %13
  %17 = add nuw i64 %5, 1
  %18 = and i64 %17, 4294967295
  %19 = add nsw i64 %18, -1
  %20 = add nsw i64 %18, -9
  %21 = lshr i64 %20, 3
  %22 = add nuw nsw i64 %21, 1
  %23 = icmp ult i64 %19, 8
  %24 = and i64 %19, -8
  %25 = or i64 %24, 1
  %26 = and i64 %22, 1
  %27 = icmp ult i64 %20, 8
  %28 = and i64 %22, 4611686018427387902
  %29 = icmp eq i64 %26, 0
  %30 = icmp eq i64 %19, %24
  br label %31

31:                                               ; preds = %16, %121
  %32 = phi i64 [ 1, %16 ], [ %123, %121 ]
  %33 = phi i32 [ 0, %16 ], [ %122, %121 ]
  %34 = getelementptr inbounds [20 x i32], [20 x i32]* %1, i64 0, i64 %32
  %35 = load i32, i32* %34, align 4, !tbaa !5
  br i1 %23, label %107, label %36

36:                                               ; preds = %31
  %37 = insertelement <4 x i32> <i32 poison, i32 0, i32 0, i32 0>, i32 %33, i32 0
  %38 = insertelement <4 x i32> poison, i32 %35, i32 0
  %39 = shufflevector <4 x i32> %38, <4 x i32> poison, <4 x i32> zeroinitializer
  %40 = insertelement <4 x i32> poison, i32 %35, i32 0
  %41 = shufflevector <4 x i32> %40, <4 x i32> poison, <4 x i32> zeroinitializer
  br i1 %27, label %80, label %42

42:                                               ; preds = %36, %42
  %43 = phi i64 [ %77, %42 ], [ 0, %36 ]
  %44 = phi <4 x i32> [ %75, %42 ], [ %37, %36 ]
  %45 = phi <4 x i32> [ %76, %42 ], [ zeroinitializer, %36 ]
  %46 = phi i64 [ %78, %42 ], [ %28, %36 ]
  %47 = or i64 %43, 1
  %48 = getelementptr inbounds [20 x i32], [20 x i32]* %1, i64 0, i64 %47
  %49 = bitcast i32* %48 to <4 x i32>*
  %50 = load <4 x i32>, <4 x i32>* %49, align 4, !tbaa !5
  %51 = getelementptr inbounds i32, i32* %48, i64 4
  %52 = bitcast i32* %51 to <4 x i32>*
  %53 = load <4 x i32>, <4 x i32>* %52, align 4, !tbaa !5
  %54 = shl nsw <4 x i32> %50, <i32 1, i32 1, i32 1, i32 1>
  %55 = shl nsw <4 x i32> %53, <i32 1, i32 1, i32 1, i32 1>
  %56 = icmp eq <4 x i32> %39, %54
  %57 = icmp eq <4 x i32> %41, %55
  %58 = zext <4 x i1> %56 to <4 x i32>
  %59 = zext <4 x i1> %57 to <4 x i32>
  %60 = add <4 x i32> %44, %58
  %61 = add <4 x i32> %45, %59
  %62 = or i64 %43, 9
  %63 = getelementptr inbounds [20 x i32], [20 x i32]* %1, i64 0, i64 %62
  %64 = bitcast i32* %63 to <4 x i32>*
  %65 = load <4 x i32>, <4 x i32>* %64, align 4, !tbaa !5
  %66 = getelementptr inbounds i32, i32* %63, i64 4
  %67 = bitcast i32* %66 to <4 x i32>*
  %68 = load <4 x i32>, <4 x i32>* %67, align 4, !tbaa !5
  %69 = shl nsw <4 x i32> %65, <i32 1, i32 1, i32 1, i32 1>
  %70 = shl nsw <4 x i32> %68, <i32 1, i32 1, i32 1, i32 1>
  %71 = icmp eq <4 x i32> %39, %69
  %72 = icmp eq <4 x i32> %41, %70
  %73 = zext <4 x i1> %71 to <4 x i32>
  %74 = zext <4 x i1> %72 to <4 x i32>
  %75 = add <4 x i32> %60, %73
  %76 = add <4 x i32> %61, %74
  %77 = add nuw i64 %43, 16
  %78 = add i64 %46, -2
  %79 = icmp eq i64 %78, 0
  br i1 %79, label %80, label %42, !llvm.loop !11

80:                                               ; preds = %42, %36
  %81 = phi <4 x i32> [ undef, %36 ], [ %75, %42 ]
  %82 = phi <4 x i32> [ undef, %36 ], [ %76, %42 ]
  %83 = phi i64 [ 0, %36 ], [ %77, %42 ]
  %84 = phi <4 x i32> [ %37, %36 ], [ %75, %42 ]
  %85 = phi <4 x i32> [ zeroinitializer, %36 ], [ %76, %42 ]
  br i1 %29, label %102, label %86

86:                                               ; preds = %80
  %87 = or i64 %83, 1
  %88 = getelementptr inbounds [20 x i32], [20 x i32]* %1, i64 0, i64 %87
  %89 = getelementptr inbounds i32, i32* %88, i64 4
  %90 = bitcast i32* %89 to <4 x i32>*
  %91 = load <4 x i32>, <4 x i32>* %90, align 4, !tbaa !5
  %92 = shl nsw <4 x i32> %91, <i32 1, i32 1, i32 1, i32 1>
  %93 = icmp eq <4 x i32> %41, %92
  %94 = zext <4 x i1> %93 to <4 x i32>
  %95 = add <4 x i32> %85, %94
  %96 = bitcast i32* %88 to <4 x i32>*
  %97 = load <4 x i32>, <4 x i32>* %96, align 4, !tbaa !5
  %98 = shl nsw <4 x i32> %97, <i32 1, i32 1, i32 1, i32 1>
  %99 = icmp eq <4 x i32> %39, %98
  %100 = zext <4 x i1> %99 to <4 x i32>
  %101 = add <4 x i32> %84, %100
  br label %102

102:                                              ; preds = %80, %86
  %103 = phi <4 x i32> [ %81, %80 ], [ %101, %86 ]
  %104 = phi <4 x i32> [ %82, %80 ], [ %95, %86 ]
  %105 = add <4 x i32> %104, %103
  %106 = call i32 @llvm.vector.reduce.add.v4i32(<4 x i32> %105)
  br i1 %30, label %121, label %107

107:                                              ; preds = %31, %102
  %108 = phi i64 [ 1, %31 ], [ %25, %102 ]
  %109 = phi i32 [ %33, %31 ], [ %106, %102 ]
  br label %110

110:                                              ; preds = %107, %110
  %111 = phi i64 [ %119, %110 ], [ %108, %107 ]
  %112 = phi i32 [ %118, %110 ], [ %109, %107 ]
  %113 = getelementptr inbounds [20 x i32], [20 x i32]* %1, i64 0, i64 %111
  %114 = load i32, i32* %113, align 4, !tbaa !5
  %115 = shl nsw i32 %114, 1
  %116 = icmp eq i32 %35, %115
  %117 = zext i1 %116 to i32
  %118 = add nsw i32 %112, %117
  %119 = add nuw nsw i64 %111, 1
  %120 = icmp eq i64 %119, %18
  br i1 %120, label %121, label %110, !llvm.loop !13

121:                                              ; preds = %110, %102
  %122 = phi i32 [ %106, %102 ], [ %118, %110 ]
  %123 = add nuw nsw i64 %32, 1
  %124 = icmp eq i64 %123, %18
  br i1 %124, label %125, label %31, !llvm.loop !15

125:                                              ; preds = %121, %13
  %126 = phi i32 [ 0, %13 ], [ %122, %121 ]
  %127 = call nonnull align 8 dereferenceable(8) %"class.std::basic_ostream"* @_ZNSolsEi(%"class.std::basic_ostream"* nonnull align 8 dereferenceable(8) @_ZSt4cout, i32 %126)
  %128 = bitcast %"class.std::basic_ostream"* %127 to i8**
  %129 = load i8*, i8** %128, align 8, !tbaa !16
  %130 = getelementptr i8, i8* %129, i64 -24
  %131 = bitcast i8* %130 to i64*
  %132 = load i64, i64* %131, align 8
  %133 = bitcast %"class.std::basic_ostream"* %127 to i8*
  %134 = add nsw i64 %132, 240
  %135 = getelementptr inbounds i8, i8* %133, i64 %134
  %136 = bitcast i8* %135 to %"class.std::ctype"**
  %137 = load %"class.std::ctype"*, %"class.std::ctype"** %136, align 8, !tbaa !18
  %138 = icmp eq %"class.std::ctype"* %137, null
  br i1 %138, label %139, label %140

139:                                              ; preds = %125
  call void @_ZSt16__throw_bad_castv() #9
  unreachable

140:                                              ; preds = %125
  %141 = getelementptr inbounds %"class.std::ctype", %"class.std::ctype"* %137, i64 0, i32 8
  %142 = load i8, i8* %141, align 8, !tbaa !22
  %143 = icmp eq i8 %142, 0
  br i1 %143, label %147, label %144

144:                                              ; preds = %140
  %145 = getelementptr inbounds %"class.std::ctype", %"class.std::ctype"* %137, i64 0, i32 9, i64 10
  %146 = load i8, i8* %145, align 1, !tbaa !24
  br label %153

147:                                              ; preds = %140
  call void @_ZNKSt5ctypeIcE13_M_widen_initEv(%"class.std::ctype"* nonnull align 8 dereferenceable(570) %137)
  %148 = bitcast %"class.std::ctype"* %137 to i8 (%"class.std::ctype"*, i8)***
  %149 = load i8 (%"class.std::ctype"*, i8)**, i8 (%"class.std::ctype"*, i8)*** %148, align 8, !tbaa !16
  %150 = getelementptr inbounds i8 (%"class.std::ctype"*, i8)*, i8 (%"class.std::ctype"*, i8)** %149, i64 6
  %151 = load i8 (%"class.std::ctype"*, i8)*, i8 (%"class.std::ctype"*, i8)** %150, align 8
  %152 = call signext i8 %151(%"class.std::ctype"* nonnull align 8 dereferenceable(570) %137, i8 signext 10)
  br label %153

153:                                              ; preds = %144, %147
  %154 = phi i8 [ %146, %144 ], [ %152, %147 ]
  %155 = call nonnull align 8 dereferenceable(8) %"class.std::basic_ostream"* @_ZNSo3putEc(%"class.std::basic_ostream"* nonnull align 8 dereferenceable(8) %127, i8 signext %154)
  %156 = call nonnull align 8 dereferenceable(8) %"class.std::basic_ostream"* @_ZNSo5flushEv(%"class.std::basic_ostream"* nonnull align 8 dereferenceable(8) %155)
  call void @llvm.lifetime.end.p0i8(i64 80, i8* nonnull %2) #8
  br label %3, !llvm.loop !25

157:                                              ; preds = %11
  call void @llvm.lifetime.end.p0i8(i64 80, i8* nonnull %2) #8
  ret i32 0
}

; Function Attrs: argmemonly mustprogress nofree nosync nounwind willreturn
declare void @llvm.lifetime.start.p0i8(i64 immarg, i8* nocapture) #4

declare nonnull align 8 dereferenceable(16) %"class.std::basic_istream"* @_ZNSirsERi(%"class.std::basic_istream"* nonnull align 8 dereferenceable(16), i32* nonnull align 4 dereferenceable(4)) local_unnamed_addr #0

declare nonnull align 8 dereferenceable(8) %"class.std::basic_ostream"* @_ZNSolsEi(%"class.std::basic_ostream"* nonnull align 8 dereferenceable(8), i32) local_unnamed_addr #0

; Function Attrs: argmemonly mustprogress nofree nosync nounwind willreturn
declare void @llvm.lifetime.end.p0i8(i64 immarg, i8* nocapture) #4

declare nonnull align 8 dereferenceable(8) %"class.std::basic_ostream"* @_ZNSo3putEc(%"class.std::basic_ostream"* nonnull align 8 dereferenceable(8), i8 signext) local_unnamed_addr #0

declare nonnull align 8 dereferenceable(8) %"class.std::basic_ostream"* @_ZNSo5flushEv(%"class.std::basic_ostream"* nonnull align 8 dereferenceable(8)) local_unnamed_addr #0

; Function Attrs: noreturn
declare void @_ZSt16__throw_bad_castv() local_unnamed_addr #5

declare void @_ZNKSt5ctypeIcE13_M_widen_initEv(%"class.std::ctype"* nonnull align 8 dereferenceable(570)) local_unnamed_addr #0

; Function Attrs: sspstrong uwtable
define internal void @_GLOBAL__sub_I_1342.cpp() #6 section ".text.startup" {
  tail call void @_ZNSt8ios_base4InitC1Ev(%"class.std::ios_base::Init"* nonnull align 1 dereferenceable(1) @_ZStL8__ioinit)
  %1 = tail call i32 @__cxa_atexit(void (i8*)* bitcast (void (%"class.std::ios_base::Init"*)* @_ZNSt8ios_base4InitD1Ev to void (i8*)*), i8* getelementptr inbounds (%"class.std::ios_base::Init", %"class.std::ios_base::Init"* @_ZStL8__ioinit, i64 0, i32 0), i8* nonnull @__dso_handle) #8
  ret void
}

; Function Attrs: nofree nosync nounwind readnone willreturn
declare i32 @llvm.vector.reduce.add.v4i32(<4 x i32>) #7


!llvm.module.flags = !{!0, !1, !2, !3}
!llvm.ident = !{!4}

!0 = !{i32 1, !"wchar_size", i32 4}
!1 = !{i32 7, !"PIC Level", i32 2}
!2 = !{i32 7, !"PIE Level", i32 2}
!3 = !{i32 7, !"uwtable", i32 1}
!4 = !{!"clang version 13.0.0"}
!5 = !{!6, !6, i64 0}
!6 = !{!"int", !7, i64 0}
!7 = !{!"omnipotent char", !8, i64 0}
!8 = !{!"Simple C++ TBAA"}
!9 = distinct !{!9, !10}
!10 = !{!"llvm.loop.mustprogress"}
!11 = distinct !{!11, !10, !12}
!12 = !{!"llvm.loop.isvectorized", i32 1}
!13 = distinct !{!13, !10, !14, !12}
!14 = !{!"llvm.loop.unroll.runtime.disable"}
!15 = distinct !{!15, !10}
!16 = !{!17, !17, i64 0}
!17 = !{!"vtable pointer", !8, i64 0}
!18 = !{!19, !20, i64 240}
!19 = !{!"_ZTSSt9basic_iosIcSt11char_traitsIcEE", !20, i64 216, !7, i64 224, !21, i64 225, !20, i64 232, !20, i64 240, !20, i64 248, !20, i64 256}
!20 = !{!"any pointer", !7, i64 0}
!21 = !{!"bool", !7, i64 0}
!22 = !{!23, !7, i64 56}
!23 = !{!"_ZTSSt5ctypeIcE", !20, i64 16, !21, i64 24, !20, i64 32, !20, i64 40, !20, i64 48, !7, i64 56, !7, i64 57, !7, i64 313, !7, i64 569}
!24 = !{!7, !7, i64 0}
!25 = distinct !{!25, !10}
